(lp0
ccopy_reg
_reconstructor
p1
(cnetworkx.classes.graph
Graph
p2
c__builtin__
object
p3
Ntp4
Rp5
(dp6
S'node'
p7
(dp8
I0
(dp9
S'x'
p10
F0.0
ssI1
(dp11
g10
F3.203736067344809e-05
ssI2
(dp12
g10
F0.052417340906549224
ssI3
(dp13
g10
F0.06906790941379315
ssI4
(dp14
g10
F0.17902552260620072
ssI5
(dp15
g10
F0.11140219457210379
ssI6
(dp16
g10
F0.2727594466258859
ssI7
(dp17
g10
F0.015013256917989553
ssI8
(dp18
g10
F0.13906099283735687
ssI9
(dp19
g10
F0.41211511137442863
ssI10
(dp20
g10
F0.2945162725877726
ssI11
(dp21
g10
F0.21506267303104698
ssI12
(dp22
g10
F0.023509843670438714
ssI13
(dp23
g10
F0.4528165148186445
ssI14
(dp24
g10
F0.4917334895899262
ssI15
(dp25
g10
F0.4345285774478806
ssI16
(dp26
g10
F0.06433564732977688
ssI17
(dp27
g10
F0.15335072919705298
ssI18
(dp28
g10
F0.21721813496551462
ssI19
(dp29
g10
F0.08235201573303337
ssI20
(dp30
g10
F0.15877092969561613
ssI21
(dp31
g10
F0.11825615050429814
ssI22
(dp32
g10
F0.5514609516012536
ssI23
(dp33
g10
F0.2135704886877691
ssI24
(dp34
g10
F0.23076441440962547
ssI25
(dp35
g10
F0.2794400994105761
ssI26
(dp36
g10
F1.007731779878016
ssI27
(dp37
g10
F1.1911732440145504
ssI28
(dp38
g10
F1.023408006589865
ssI29
(dp39
g10
F0.24566830059147304
ssI30
(dp40
g10
F1.3676242853994274
ssI31
(dp41
g10
F0.09897784232055715
ssI32
(dp42
g10
F0.9482856912137303
ssI33
(dp43
g10
F0.125274510314157
ssI34
(dp44
g10
F1.439949765295324
ssI35
(dp45
g10
F0.6261155347910968
ssI36
(dp46
g10
F0.014308088042696943
ssI37
(dp47
g10
F0.4113023061769804
ssI38
(dp48
g10
F1.4916872643053931
ssI39
(dp49
g10
F0.7140751104504812
sssS'graph'
p50
(dp51
S'name'
p52
S'barbell_graph(20,0)'
p53
ssS'edge'
p54
(dp55
I0
(dp56
I1
(dp57
sI2
(dp58
sI3
(dp59
sI4
(dp60
sI5
(dp61
sI6
(dp62
sI7
(dp63
sI8
(dp64
sI9
(dp65
sI10
(dp66
sI11
(dp67
sI12
(dp68
sI13
(dp69
sI14
(dp70
sI15
(dp71
sI16
(dp72
sI17
(dp73
sI18
(dp74
sI19
(dp75
ssI1
(dp76
I0
g57
sI2
(dp77
sI3
(dp78
sI4
(dp79
sI5
(dp80
sI6
(dp81
sI7
(dp82
sI8
(dp83
sI9
(dp84
sI10
(dp85
sI11
(dp86
sI12
(dp87
sI13
(dp88
sI14
(dp89
sI15
(dp90
sI16
(dp91
sI17
(dp92
sI18
(dp93
sI19
(dp94
ssI2
(dp95
I0
g58
sI1
g77
sI3
(dp96
sI4
(dp97
sI5
(dp98
sI6
(dp99
sI7
(dp100
sI8
(dp101
sI9
(dp102
sI10
(dp103
sI11
(dp104
sI12
(dp105
sI13
(dp106
sI14
(dp107
sI15
(dp108
sI16
(dp109
sI17
(dp110
sI18
(dp111
sI19
(dp112
ssI3
(dp113
I0
g59
sI1
g78
sI2
g96
sI4
(dp114
sI5
(dp115
sI6
(dp116
sI7
(dp117
sI8
(dp118
sI9
(dp119
sI10
(dp120
sI11
(dp121
sI12
(dp122
sI13
(dp123
sI14
(dp124
sI15
(dp125
sI16
(dp126
sI17
(dp127
sI18
(dp128
sI19
(dp129
ssI4
(dp130
I0
g60
sI1
g79
sI2
g97
sI3
g114
sI5
(dp131
sI6
(dp132
sI7
(dp133
sI8
(dp134
sI9
(dp135
sI10
(dp136
sI11
(dp137
sI12
(dp138
sI13
(dp139
sI14
(dp140
sI15
(dp141
sI16
(dp142
sI17
(dp143
sI18
(dp144
sI19
(dp145
ssI5
(dp146
I0
g61
sI1
g80
sI2
g98
sI3
g115
sI4
g131
sI6
(dp147
sI7
(dp148
sI8
(dp149
sI9
(dp150
sI10
(dp151
sI11
(dp152
sI12
(dp153
sI13
(dp154
sI14
(dp155
sI15
(dp156
sI16
(dp157
sI17
(dp158
sI18
(dp159
sI19
(dp160
ssI6
(dp161
I0
g62
sI1
g81
sI2
g99
sI3
g116
sI4
g132
sI5
g147
sI7
(dp162
sI8
(dp163
sI9
(dp164
sI10
(dp165
sI11
(dp166
sI12
(dp167
sI13
(dp168
sI14
(dp169
sI15
(dp170
sI16
(dp171
sI17
(dp172
sI18
(dp173
sI19
(dp174
ssI7
(dp175
I0
g63
sI1
g82
sI2
g100
sI3
g117
sI4
g133
sI5
g148
sI6
g162
sI8
(dp176
sI9
(dp177
sI10
(dp178
sI11
(dp179
sI12
(dp180
sI13
(dp181
sI14
(dp182
sI15
(dp183
sI16
(dp184
sI17
(dp185
sI18
(dp186
sI19
(dp187
ssI8
(dp188
I0
g64
sI1
g83
sI2
g101
sI3
g118
sI4
g134
sI5
g149
sI6
g163
sI7
g176
sI9
(dp189
sI10
(dp190
sI11
(dp191
sI12
(dp192
sI13
(dp193
sI14
(dp194
sI15
(dp195
sI16
(dp196
sI17
(dp197
sI18
(dp198
sI19
(dp199
ssI9
(dp200
I0
g65
sI1
g84
sI2
g102
sI3
g119
sI4
g135
sI5
g150
sI6
g164
sI7
g177
sI8
g189
sI10
(dp201
sI11
(dp202
sI12
(dp203
sI13
(dp204
sI14
(dp205
sI15
(dp206
sI16
(dp207
sI17
(dp208
sI18
(dp209
sI19
(dp210
ssI10
(dp211
I0
g66
sI1
g85
sI2
g103
sI3
g120
sI4
g136
sI5
g151
sI6
g165
sI7
g178
sI8
g190
sI9
g201
sI11
(dp212
sI12
(dp213
sI13
(dp214
sI14
(dp215
sI15
(dp216
sI16
(dp217
sI17
(dp218
sI18
(dp219
sI19
(dp220
ssI11
(dp221
I0
g67
sI1
g86
sI2
g104
sI3
g121
sI4
g137
sI5
g152
sI6
g166
sI7
g179
sI8
g191
sI9
g202
sI10
g212
sI12
(dp222
sI13
(dp223
sI14
(dp224
sI15
(dp225
sI16
(dp226
sI17
(dp227
sI18
(dp228
sI19
(dp229
ssI12
(dp230
I0
g68
sI1
g87
sI2
g105
sI3
g122
sI4
g138
sI5
g153
sI6
g167
sI7
g180
sI8
g192
sI9
g203
sI10
g213
sI11
g222
sI13
(dp231
sI14
(dp232
sI15
(dp233
sI16
(dp234
sI17
(dp235
sI18
(dp236
sI19
(dp237
ssI13
(dp238
I0
g69
sI1
g88
sI2
g106
sI3
g123
sI4
g139
sI5
g154
sI6
g168
sI7
g181
sI8
g193
sI9
g204
sI10
g214
sI11
g223
sI12
g231
sI14
(dp239
sI15
(dp240
sI16
(dp241
sI17
(dp242
sI18
(dp243
sI19
(dp244
ssI14
(dp245
I0
g70
sI1
g89
sI2
g107
sI3
g124
sI4
g140
sI5
g155
sI6
g169
sI7
g182
sI8
g194
sI9
g205
sI10
g215
sI11
g224
sI12
g232
sI13
g239
sI15
(dp246
sI16
(dp247
sI17
(dp248
sI18
(dp249
sI19
(dp250
ssI15
(dp251
I0
g71
sI1
g90
sI2
g108
sI3
g125
sI4
g141
sI5
g156
sI6
g170
sI7
g183
sI8
g195
sI9
g206
sI10
g216
sI11
g225
sI12
g233
sI13
g240
sI14
g246
sI16
(dp252
sI17
(dp253
sI18
(dp254
sI19
(dp255
ssI16
(dp256
I0
g72
sI1
g91
sI2
g109
sI3
g126
sI4
g142
sI5
g157
sI6
g171
sI7
g184
sI8
g196
sI9
g207
sI10
g217
sI11
g226
sI12
g234
sI13
g241
sI14
g247
sI15
g252
sI17
(dp257
sI18
(dp258
sI19
(dp259
ssI17
(dp260
I0
g73
sI1
g92
sI2
g110
sI3
g127
sI4
g143
sI5
g158
sI6
g172
sI7
g185
sI8
g197
sI9
g208
sI10
g218
sI11
g227
sI12
g235
sI13
g242
sI14
g248
sI15
g253
sI16
g257
sI18
(dp261
sI19
(dp262
ssI18
(dp263
I0
g74
sI1
g93
sI2
g111
sI3
g128
sI4
g144
sI5
g159
sI6
g173
sI7
g186
sI8
g198
sI9
g209
sI10
g219
sI11
g228
sI12
g236
sI13
g243
sI14
g249
sI15
g254
sI16
g258
sI17
g261
sI19
(dp264
ssI19
(dp265
I0
g75
sI1
g94
sI2
g112
sI3
g129
sI4
g145
sI5
g160
sI6
g174
sI7
g187
sI8
g199
sI9
g210
sI10
g220
sI11
g229
sI12
g237
sI13
g244
sI14
g250
sI15
g255
sI16
g259
sI17
g262
sI18
g264
sI20
(dp266
ssI20
(dp267
I32
(dp268
sI33
(dp269
sI34
(dp270
sI35
(dp271
sI36
(dp272
sI37
(dp273
sI38
(dp274
sI39
(dp275
sI19
g266
sI21
(dp276
sI22
(dp277
sI23
(dp278
sI24
(dp279
sI25
(dp280
sI26
(dp281
sI27
(dp282
sI28
(dp283
sI29
(dp284
sI30
(dp285
sI31
(dp286
ssI21
(dp287
I32
(dp288
sI33
(dp289
sI34
(dp290
sI35
(dp291
sI36
(dp292
sI37
(dp293
sI38
(dp294
sI39
(dp295
sI20
g276
sI22
(dp296
sI23
(dp297
sI24
(dp298
sI25
(dp299
sI26
(dp300
sI27
(dp301
sI28
(dp302
sI29
(dp303
sI30
(dp304
sI31
(dp305
ssI22
(dp306
I32
(dp307
sI33
(dp308
sI34
(dp309
sI35
(dp310
sI36
(dp311
sI37
(dp312
sI38
(dp313
sI39
(dp314
sI20
g277
sI21
g296
sI23
(dp315
sI24
(dp316
sI25
(dp317
sI26
(dp318
sI27
(dp319
sI28
(dp320
sI29
(dp321
sI30
(dp322
sI31
(dp323
ssI23
(dp324
I32
(dp325
sI33
(dp326
sI34
(dp327
sI35
(dp328
sI36
(dp329
sI37
(dp330
sI38
(dp331
sI39
(dp332
sI20
g278
sI21
g297
sI22
g315
sI24
(dp333
sI25
(dp334
sI26
(dp335
sI27
(dp336
sI28
(dp337
sI29
(dp338
sI30
(dp339
sI31
(dp340
ssI24
(dp341
I32
(dp342
sI33
(dp343
sI34
(dp344
sI35
(dp345
sI36
(dp346
sI37
(dp347
sI38
(dp348
sI39
(dp349
sI20
g279
sI21
g298
sI22
g316
sI23
g333
sI25
(dp350
sI26
(dp351
sI27
(dp352
sI28
(dp353
sI29
(dp354
sI30
(dp355
sI31
(dp356
ssI25
(dp357
I32
(dp358
sI33
(dp359
sI34
(dp360
sI35
(dp361
sI36
(dp362
sI37
(dp363
sI38
(dp364
sI39
(dp365
sI20
g280
sI21
g299
sI22
g317
sI23
g334
sI24
g350
sI26
(dp366
sI27
(dp367
sI28
(dp368
sI29
(dp369
sI30
(dp370
sI31
(dp371
ssI26
(dp372
I32
(dp373
sI33
(dp374
sI34
(dp375
sI35
(dp376
sI36
(dp377
sI37
(dp378
sI38
(dp379
sI39
(dp380
sI20
g281
sI21
g300
sI22
g318
sI23
g335
sI24
g351
sI25
g366
sI27
(dp381
sI28
(dp382
sI29
(dp383
sI30
(dp384
sI31
(dp385
ssI27
(dp386
I32
(dp387
sI33
(dp388
sI34
(dp389
sI35
(dp390
sI36
(dp391
sI37
(dp392
sI38
(dp393
sI39
(dp394
sI20
g282
sI21
g301
sI22
g319
sI23
g336
sI24
g352
sI25
g367
sI26
g381
sI28
(dp395
sI29
(dp396
sI30
(dp397
sI31
(dp398
ssI28
(dp399
I32
(dp400
sI33
(dp401
sI34
(dp402
sI35
(dp403
sI36
(dp404
sI37
(dp405
sI38
(dp406
sI39
(dp407
sI20
g283
sI21
g302
sI22
g320
sI23
g337
sI24
g353
sI25
g368
sI26
g382
sI27
g395
sI29
(dp408
sI30
(dp409
sI31
(dp410
ssI29
(dp411
I32
(dp412
sI33
(dp413
sI34
(dp414
sI35
(dp415
sI36
(dp416
sI37
(dp417
sI38
(dp418
sI39
(dp419
sI20
g284
sI21
g303
sI22
g321
sI23
g338
sI24
g354
sI25
g369
sI26
g383
sI27
g396
sI28
g408
sI30
(dp420
sI31
(dp421
ssI30
(dp422
I32
(dp423
sI33
(dp424
sI34
(dp425
sI35
(dp426
sI36
(dp427
sI37
(dp428
sI38
(dp429
sI39
(dp430
sI20
g285
sI21
g304
sI22
g322
sI23
g339
sI24
g355
sI25
g370
sI26
g384
sI27
g397
sI28
g409
sI29
g420
sI31
(dp431
ssI31
(dp432
I32
(dp433
sI33
(dp434
sI34
(dp435
sI35
(dp436
sI36
(dp437
sI37
(dp438
sI38
(dp439
sI39
(dp440
sI20
g286
sI21
g305
sI22
g323
sI23
g340
sI24
g356
sI25
g371
sI26
g385
sI27
g398
sI28
g410
sI29
g421
sI30
g431
ssI32
(dp441
I33
(dp442
sI34
(dp443
sI35
(dp444
sI36
(dp445
sI37
(dp446
sI38
(dp447
sI39
(dp448
sI20
g268
sI21
g288
sI22
g307
sI23
g325
sI24
g342
sI25
g358
sI26
g373
sI27
g387
sI28
g400
sI29
g412
sI30
g423
sI31
g433
ssI33
(dp449
I32
g442
sI34
(dp450
sI35
(dp451
sI36
(dp452
sI37
(dp453
sI38
(dp454
sI39
(dp455
sI20
g269
sI21
g289
sI22
g308
sI23
g326
sI24
g343
sI25
g359
sI26
g374
sI27
g388
sI28
g401
sI29
g413
sI30
g424
sI31
g434
ssI34
(dp456
I32
g443
sI33
g450
sI35
(dp457
sI36
(dp458
sI37
(dp459
sI38
(dp460
sI39
(dp461
sI20
g270
sI21
g290
sI22
g309
sI23
g327
sI24
g344
sI25
g360
sI26
g375
sI27
g389
sI28
g402
sI29
g414
sI30
g425
sI31
g435
ssI35
(dp462
I32
g444
sI33
g451
sI34
g457
sI36
(dp463
sI37
(dp464
sI38
(dp465
sI39
(dp466
sI20
g271
sI21
g291
sI22
g310
sI23
g328
sI24
g345
sI25
g361
sI26
g376
sI27
g390
sI28
g403
sI29
g415
sI30
g426
sI31
g436
ssI36
(dp467
I32
g445
sI33
g452
sI34
g458
sI35
g463
sI37
(dp468
sI38
(dp469
sI39
(dp470
sI20
g272
sI21
g292
sI22
g311
sI23
g329
sI24
g346
sI25
g362
sI26
g377
sI27
g391
sI28
g404
sI29
g416
sI30
g427
sI31
g437
ssI37
(dp471
I32
g446
sI33
g453
sI34
g459
sI35
g464
sI36
g468
sI38
(dp472
sI39
(dp473
sI20
g273
sI21
g293
sI22
g312
sI23
g330
sI24
g347
sI25
g363
sI26
g378
sI27
g392
sI28
g405
sI29
g417
sI30
g428
sI31
g438
ssI38
(dp474
I32
g447
sI33
g454
sI34
g460
sI35
g465
sI36
g469
sI37
g472
sI39
(dp475
sI20
g274
sI21
g294
sI22
g313
sI23
g331
sI24
g348
sI25
g364
sI26
g379
sI27
g393
sI28
g406
sI29
g418
sI30
g429
sI31
g439
ssI39
(dp476
I32
g448
sI33
g455
sI34
g461
sI35
g466
sI36
g470
sI37
g473
sI38
g475
sI20
g275
sI21
g295
sI22
g314
sI23
g332
sI24
g349
sI25
g365
sI26
g380
sI27
g394
sI28
g407
sI29
g419
sI30
g430
sI31
g440
sssS'adj'
p477
g55
sba(lp478
(lp479
F0.0
aa(lp480
F3.203736067344809e-05
aa(lp481
F0.052417340906549224
aa(lp482
F0.06906790941379315
aa(lp483
F0.17902552260620072
aa(lp484
F0.11140219457210379
aa(lp485
F0.2727594466258859
aa(lp486
F0.015013256917989553
aa(lp487
F0.13906099283735687
aa(lp488
F0.41211511137442863
aa(lp489
F0.2945162725877726
aa(lp490
F0.21506267303104698
aa(lp491
F0.023509843670438714
aa(lp492
F0.4528165148186445
aa(lp493
F0.4917334895899262
aa(lp494
F0.4345285774478806
aa(lp495
F0.06433564732977688
aa(lp496
F0.15335072919705298
aa(lp497
F0.21721813496551462
aa(lp498
F0.08235201573303337
aa(lp499
F0.15877092969561613
aa(lp500
F0.11825615050429814
aa(lp501
F0.5514609516012536
aa(lp502
F0.2135704886877691
aa(lp503
F0.23076441440962547
aa(lp504
F0.2794400994105761
aa(lp505
F1.007731779878016
aa(lp506
F1.1911732440145504
aa(lp507
F1.023408006589865
aa(lp508
F0.24566830059147304
aa(lp509
F1.3676242853994274
aa(lp510
F0.09897784232055715
aa(lp511
F0.9482856912137303
aa(lp512
F0.125274510314157
aa(lp513
F1.439949765295324
aa(lp514
F0.6261155347910968
aa(lp515
F0.014308088042696943
aa(lp516
F0.4113023061769804
aa(lp517
F1.4916872643053931
aa(lp518
F0.7140751104504812
aaa.